target datalayout = "e-m:e-p270:32:32-p271:32:32-p272:64:64-i64:64-i128:128-f80:128-n8:16:32:64-S128"
target triple = "x86_64-pc-linux-gnu"

@.str.2675 = private unnamed_addr constant [19 x i8] c"DeviceIdentifier: \00", align 1
@.str.3787 = private unnamed_addr constant [16 x i8] c"message Class: \00", align 1
@.str.3788 = private unnamed_addr constant [19 x i8] c"message Priority: \00", align 1
@.str.3789 = private unnamed_addr constant [10 x i8] c"message: \00", align 1
@BACnetMessagePriority = internal constant [3 x { i32, [4 x i8], ptr }] [{ i32, [4 x i8], ptr } { i32 0, [4 x i8] zeroinitializer, ptr @.str.2580 }, { i32, [4 x i8], ptr } { i32 1, [4 x i8] zeroinitializer, ptr @.str.3790 }, { i32, [4 x i8], ptr } zeroinitializer], align 16

; Function Attrs: null_pointer_is_valid sspstrong uwtable
define internal i32 @fEnumeratedTag(ptr noundef %0, ptr noundef %1, ptr noundef %2, i32 noundef %3, ptr noundef %4, ptr noundef %5) #0 {
  %7 = alloca ptr, align 8
  %8 = alloca ptr, align 8
  %9 = alloca ptr, align 8
  %10 = alloca i32, align 4
  %11 = alloca ptr, align 8
  %12 = alloca ptr, align 8
  store ptr %0, ptr %7, align 8
  store ptr %1, ptr %8, align 8
  store ptr %2, ptr %9, align 8
  store i32 %3, ptr %10, align 4
  store ptr %4, ptr %11, align 8
  store ptr %5, ptr %12, align 8
  %13 = load ptr, ptr %7, align 8
  %14 = load ptr, ptr %8, align 8
  %15 = load ptr, ptr %9, align 8
  %16 = load i32, ptr %10, align 4
  %17 = load ptr, ptr %11, align 8
  %18 = load ptr, ptr %12, align 8
  %19 = call i32 @fEnumeratedTagSplit(ptr noundef %13, ptr noundef %14, ptr noundef %15, i32 noundef %16, ptr noundef %17, ptr noundef %18, i32 noundef 0)
  ret i32 %19
}

; Function Attrs: null_pointer_is_valid sspstrong uwtable
define internal i32 @fCharacterString(ptr noundef %0, ptr noundef %1, ptr noundef %2, i32 noundef %3, ptr noundef %4) #0 {
  %6 = alloca ptr, align 8
  %7 = alloca ptr, align 8
  %8 = alloca ptr, align 8
  %9 = alloca i32, align 4
  %10 = alloca ptr, align 8
  store ptr %0, ptr %6, align 8
  store ptr %1, ptr %7, align 8
  store ptr %2, ptr %8, align 8
  store i32 %3, ptr %9, align 4
  store ptr %4, ptr %10, align 8
  %11 = load ptr, ptr %6, align 8
  %12 = load ptr, ptr %7, align 8
  %13 = load ptr, ptr %8, align 8
  %14 = load i32, ptr %9, align 4
  %15 = load ptr, ptr %10, align 8
  %16 = call i32 @fCharacterStringBase(ptr noundef %11, ptr noundef %12, ptr noundef %13, i32 noundef %14, ptr noundef %15, i1 noundef zeroext false, i1 noundef zeroext false)
  ret i32 %16
}

; Function Attrs: null_pointer_is_valid sspstrong uwtable
define internal i32 @fTagNo(ptr noundef %0, i32 noundef %1) #0 {
  %3 = alloca ptr, align 8
  %4 = alloca i32, align 4
  store ptr %0, ptr %3, align 8
  store i32 %1, ptr %4, align 4
  %5 = load ptr, ptr %3, align 8
  %6 = load i32, ptr %4, align 4
  %7 = call zeroext i8 @tvb_get_uint8(ptr noundef %5, i32 noundef %6)
  %8 = zext i8 %7 to i32
  %9 = ashr i32 %8, 4
  ret i32 %9
}

; Function Attrs: null_pointer_is_valid sspstrong uwtable
define internal i32 @fConfirmedTextMessageRequest(ptr noundef %0, ptr noundef %1, ptr noundef %2, i32 noundef %3) #0 {
  %5 = alloca i32, align 4
  %6 = alloca ptr, align 8
  %7 = alloca ptr, align 8
  %8 = alloca ptr, align 8
  %9 = alloca i32, align 4
  %10 = alloca i8, align 1
  %11 = alloca i8, align 1
  %12 = alloca i32, align 4
  %13 = alloca i32, align 4
  %14 = alloca i32, align 4
  store ptr %0, ptr %6, align 8
  store ptr %1, ptr %7, align 8
  store ptr %2, ptr %8, align 8
  store i32 %3, ptr %9, align 4
  call void @llvm.lifetime.start.p0(i64 1, ptr %10) #7
  call void @llvm.lifetime.start.p0(i64 1, ptr %11) #7
  call void @llvm.lifetime.start.p0(i64 4, ptr %12) #7
  call void @llvm.lifetime.start.p0(i64 4, ptr %13) #7
  store i32 0, ptr %13, align 4
  br label %15

15:                                               ; preds = %81, %4
  %16 = load ptr, ptr %6, align 8
  %17 = load i32, ptr %9, align 4
  %18 = call i32 @tvb_reported_length_remaining(ptr noundef %16, i32 noundef %17)
  %19 = icmp sgt i32 %18, 0
  br i1 %19, label %20, label %82

20:                                               ; preds = %15
  %21 = load i32, ptr %9, align 4
  store i32 %21, ptr %13, align 4
  %22 = load ptr, ptr %6, align 8
  %23 = load i32, ptr %9, align 4
  %24 = call i32 @fTagNo(ptr noundef %22, i32 noundef %23)
  switch i32 %24, label %74 [
    i32 0, label %25
    i32 1, label %31
    i32 2, label %62
    i32 3, label %68
  ]

25:                                               ; preds = %20
  %26 = load ptr, ptr %6, align 8
  %27 = load ptr, ptr %7, align 8
  %28 = load ptr, ptr %8, align 8
  %29 = load i32, ptr %9, align 4
  %30 = call i32 @fObjectIdentifier(ptr noundef %26, ptr noundef %27, ptr noundef %28, i32 noundef %29, ptr noundef @.str.2675)
  store i32 %30, ptr %9, align 4
  br label %76

31:                                               ; preds = %20
  %32 = load ptr, ptr %6, align 8
  %33 = load ptr, ptr %7, align 8
  %34 = load ptr, ptr %8, align 8
  %35 = load i32, ptr %9, align 4
  %36 = call i32 @fTagHeaderTree(ptr noundef %32, ptr noundef %33, ptr noundef %34, i32 noundef %35, ptr noundef %10, ptr noundef %11, ptr noundef %12)
  %37 = load i32, ptr %9, align 4
  %38 = add i32 %37, %36
  store i32 %38, ptr %9, align 4
  %39 = load ptr, ptr %6, align 8
  %40 = load i32, ptr %9, align 4
  %41 = call i32 @fTagNo(ptr noundef %39, i32 noundef %40)
  switch i32 %41, label %54 [
    i32 0, label %42
    i32 1, label %48
  ]

42:                                               ; preds = %31
  %43 = load ptr, ptr %6, align 8
  %44 = load ptr, ptr %7, align 8
  %45 = load ptr, ptr %8, align 8
  %46 = load i32, ptr %9, align 4
  %47 = call i32 @fUnsignedTag(ptr noundef %43, ptr noundef %44, ptr noundef %45, i32 noundef %46, ptr noundef @.str.3787)
  store i32 %47, ptr %9, align 4
  br label %54

48:                                               ; preds = %31
  %49 = load ptr, ptr %6, align 8
  %50 = load ptr, ptr %7, align 8
  %51 = load ptr, ptr %8, align 8
  %52 = load i32, ptr %9, align 4
  %53 = call i32 @fCharacterString(ptr noundef %49, ptr noundef %50, ptr noundef %51, i32 noundef %52, ptr noundef @.str.3787)
  store i32 %53, ptr %9, align 4
  br label %54

54:                                               ; preds = %31, %48, %42
  %55 = load ptr, ptr %6, align 8
  %56 = load ptr, ptr %7, align 8
  %57 = load ptr, ptr %8, align 8
  %58 = load i32, ptr %9, align 4
  %59 = call i32 @fTagHeaderTree(ptr noundef %55, ptr noundef %56, ptr noundef %57, i32 noundef %58, ptr noundef %10, ptr noundef %11, ptr noundef %12)
  %60 = load i32, ptr %9, align 4
  %61 = add i32 %60, %59
  store i32 %61, ptr %9, align 4
  br label %76

62:                                               ; preds = %20
  %63 = load ptr, ptr %6, align 8
  %64 = load ptr, ptr %7, align 8
  %65 = load ptr, ptr %8, align 8
  %66 = load i32, ptr %9, align 4
  %67 = call i32 @fEnumeratedTag(ptr noundef %63, ptr noundef %64, ptr noundef %65, i32 noundef %66, ptr noundef @.str.3788, ptr noundef @BACnetMessagePriority)
  store i32 %67, ptr %9, align 4
  br label %76

68:                                               ; preds = %20
  %69 = load ptr, ptr %6, align 8
  %70 = load ptr, ptr %7, align 8
  %71 = load ptr, ptr %8, align 8
  %72 = load i32, ptr %9, align 4
  %73 = call i32 @fCharacterString(ptr noundef %69, ptr noundef %70, ptr noundef %71, i32 noundef %72, ptr noundef @.str.3789)
  store i32 %73, ptr %9, align 4
  br label %76

74:                                               ; preds = %20
  %75 = load i32, ptr %9, align 4
  store i32 %75, ptr %5, align 4
  store i32 1, ptr %14, align 4
  br label %84

76:                                               ; preds = %68, %62, %54, %25
  %77 = load i32, ptr %9, align 4
  %78 = load i32, ptr %13, align 4
  %79 = icmp ule i32 %77, %78
  br i1 %79, label %80, label %81

80:                                               ; preds = %76
  br label %82

81:                                               ; preds = %76
  br label %15, !llvm.loop !151

82:                                               ; preds = %80, %15
  %83 = load i32, ptr %9, align 4
  store i32 %83, ptr %5, align 4
  store i32 1, ptr %14, align 4
  br label %84

84:                                               ; preds = %82, %74
  call void @llvm.lifetime.end.p0(i64 4, ptr %13) #7
  call void @llvm.lifetime.end.p0(i64 4, ptr %12) #7
  call void @llvm.lifetime.end.p0(i64 1, ptr %11) #7
  call void @llvm.lifetime.end.p0(i64 1, ptr %10) #7
  %85 = load i32, ptr %5, align 4
  ret i32 %85
}