; Function Attrs: null_pointer_is_valid sspstrong uwtable
define internal fastcc i32 @fConfirmedTextMessageRequest(ptr noundef nonnull %0, ptr noundef %1, ptr noundef %2, i32 noundef range(i32 0, 7) %3) unnamed_addr #0 {
  %5 = alloca i8, align 1
  %6 = alloca i8, align 1
  %7 = alloca i32, align 4
  call void @llvm.lifetime.start.p0(i64 1, ptr nonnull %5) #6
  call void @llvm.lifetime.start.p0(i64 1, ptr nonnull %6) #6
  call void @llvm.lifetime.start.p0(i64 4, ptr nonnull %7) #6
  br label %8

8:                                                ; preds = %32, %4
  %.0 = phi i32 [ %3, %4 ], [ %.2, %32 ]
  %9 = tail call i32 @tvb_reported_length_remaining(ptr noundef nonnull %0, i32 noundef %.0)
  %10 = icmp sgt i32 %9, 0
  br i1 %10, label %11, label %33

11:                                               ; preds = %8
  %12 = tail call zeroext i8 @tvb_get_uint8(ptr noundef nonnull %0, i32 noundef %.0)
  %13 = lshr i8 %12, 4
  switch i8 %13, label %33 [
    i8 0, label %14
    i8 1, label %16
    i8 2, label %28
    i8 3, label %30
  ]

14:                                               ; preds = %11
  %15 = tail call fastcc i32 @fObjectIdentifier(ptr noundef %0, ptr noundef %1, ptr noundef %2, i32 noundef %.0, ptr noundef nonnull @.str.2675)
  br label %32

16:                                               ; preds = %11
  %17 = call fastcc i32 @fTagHeaderTree(ptr noundef %0, ptr noundef %1, ptr noundef %2, i32 noundef %.0, ptr noundef nonnull %5, ptr noundef nonnull %6, ptr noundef nonnull %7)
  %18 = add i32 %17, %.0
  %19 = tail call zeroext i8 @tvb_get_uint8(ptr noundef nonnull %0, i32 noundef %18)
  %20 = lshr i8 %19, 4
  switch i8 %20, label %25 [
    i8 0, label %21
    i8 1, label %23
  ]

21:                                               ; preds = %16
  %22 = tail call fastcc i32 @fUnsignedTag(ptr noundef %0, ptr noundef %1, ptr noundef %2, i32 noundef %18, ptr noundef nonnull @.str.3787)
  br label %25

23:                                               ; preds = %16
  %24 = tail call fastcc i32 @fCharacterStringBase(ptr noundef nonnull %0, ptr noundef %1, ptr noundef %2, i32 noundef %18, ptr noundef nonnull @.str.3787, i1 noundef zeroext false, i1 noundef zeroext false)
  br label %25

25:                                               ; preds = %23, %21, %16
  %.3 = phi i32 [ %18, %16 ], [ %24, %23 ], [ %22, %21 ]
  %26 = call fastcc i32 @fTagHeaderTree(ptr noundef %0, ptr noundef %1, ptr noundef %2, i32 noundef %.3, ptr noundef nonnull %5, ptr noundef nonnull %6, ptr noundef nonnull %7)
  %27 = add i32 %26, %.3
  br label %32

28:                                               ; preds = %11
  %29 = tail call fastcc i32 @fEnumeratedTagSplit(ptr noundef nonnull %0, ptr noundef %1, ptr noundef %2, i32 noundef %.0, ptr noundef nonnull @.str.3788, ptr noundef nonnull @BACnetMessagePriority, i32 noundef 0)
  br label %32

30:                                               ; preds = %11
  %31 = tail call fastcc i32 @fCharacterStringBase(ptr noundef nonnull %0, ptr noundef %1, ptr noundef %2, i32 noundef %.0, ptr noundef nonnull @.str.3789, i1 noundef zeroext false, i1 noundef zeroext false)
  br label %32

32:                                               ; preds = %30, %28, %25, %14
  %.2 = phi i32 [ %31, %30 ], [ %29, %28 ], [ %27, %25 ], [ %15, %14 ]
  %.not = icmp ugt i32 %.2, %.0
  br i1 %.not, label %8, label %33, !llvm.loop !163

33:                                               ; preds = %8, %32, %11
  %.041 = phi i32 [ %.0, %11 ], [ %.2, %32 ], [ %.0, %8 ]
  call void @llvm.lifetime.end.p0(i64 4, ptr nonnull %7) #6
  call void @llvm.lifetime.end.p0(i64 1, ptr nonnull %6) #6
  call void @llvm.lifetime.end.p0(i64 1, ptr nonnull %5) #6
  ret i32 %.041
}